target datalayout = "e-m:e-p270:32:32-p271:32:32-p272:64:64-i64:64-i128:128-f80:128-n8:16:32:64-S128"
target triple = "x86_64-pc-linux-gnu"

%class.cmMessenger = type { %"class.std::optional", i8, i8, i8, i8, %"class.std::shared_ptr" }
%"class.std::optional" = type { %"struct.std::_Optional_base" }
%"struct.std::_Optional_base" = type { %"struct.std::_Optional_payload" }
%"struct.std::_Optional_payload" = type { %"struct.std::_Optional_payload.base", [7 x i8] }
%"struct.std::_Optional_payload.base" = type { %"struct.std::_Optional_payload_base.base" }
%"struct.std::_Optional_payload_base.base" = type <{ %"union.std::_Optional_payload_base<std::__cxx11::basic_string<char>>::_Storage", i8 }>
%"union.std::_Optional_payload_base<std::__cxx11::basic_string<char>>::_Storage" = type { %"class.std::__cxx11::basic_string" }
%"class.std::__cxx11::basic_string" = type { %"struct.std::__cxx11::basic_string<char>::_Alloc_hider", i64, %union.anon }
%"struct.std::__cxx11::basic_string<char>::_Alloc_hider" = type { ptr }
%union.anon = type { i64, [8 x i8] }
%"class.std::shared_ptr" = type { %"class.std::__shared_ptr" }
%"class.std::__shared_ptr" = type { ptr, %"class.std::__shared_count" }
%"class.std::__shared_count" = type { ptr }

; Function Attrs: mustprogress nounwind uwtable
define linkonce_odr dso_local noundef zeroext i1 @_ZNK11cmMessenger29GetDeprecatedWarningsAsErrorsEv(ptr noundef nonnull align 8 dereferenceable(64) %0) #5 comdat align 2 {
  %2 = alloca ptr, align 8
  store ptr %0, ptr %2, align 8
  %3 = load ptr, ptr %2, align 8
  %4 = getelementptr inbounds %class.cmMessenger, ptr %3, i32 0, i32 4
  %5 = load i8, ptr %4, align 1
  %6 = trunc i8 %5 to i1
  ret i1 %6
}

; Function Attrs: mustprogress nounwind uwtable
define linkonce_odr dso_local noundef zeroext i1 @_ZNK11cmMessenger22GetDevWarningsAsErrorsEv(ptr noundef nonnull align 8 dereferenceable(64) %0) #5 comdat align 2 {
  %2 = alloca ptr, align 8
  store ptr %0, ptr %2, align 8
  %3 = load ptr, ptr %2, align 8
  %4 = getelementptr inbounds %class.cmMessenger, ptr %3, i32 0, i32 3
  %5 = load i8, ptr %4, align 2
  %6 = trunc i8 %5 to i1
  ret i1 %6
}

; Function Attrs: mustprogress uwtable
define dso_local noundef i32 @_ZNK11cmMessenger18ConvertMessageTypeE11MessageType(ptr noundef nonnull align 8 dereferenceable(64) %0, i32 noundef %1) #4 align 2 {
  %3 = alloca i32, align 4
  %4 = alloca ptr, align 8
  %5 = alloca i32, align 4
  store ptr %0, ptr %4, align 8
  store i32 %1, ptr %5, align 4
  %6 = load ptr, ptr %4, align 8
  %7 = load i32, ptr %5, align 4
  %8 = icmp eq i32 %7, 0
  br i1 %8, label %12, label %9

9:                                                ; preds = %2
  %10 = load i32, ptr %5, align 4
  %11 = icmp eq i32 %10, 1
  br i1 %11, label %12, label %16

12:                                               ; preds = %9, %2
  %13 = call noundef zeroext i1 @_ZNK11cmMessenger22GetDevWarningsAsErrorsEv(ptr noundef nonnull align 8 dereferenceable(64) %6)
  br i1 %13, label %14, label %15

14:                                               ; preds = %12
  store i32 1, ptr %3, align 4
  br label %28

15:                                               ; preds = %12
  store i32 0, ptr %3, align 4
  br label %28

16:                                               ; preds = %9
  %17 = load i32, ptr %5, align 4
  %18 = icmp eq i32 %17, 8
  br i1 %18, label %22, label %19

19:                                               ; preds = %16
  %20 = load i32, ptr %5, align 4
  %21 = icmp eq i32 %20, 7
  br i1 %21, label %22, label %26

22:                                               ; preds = %19, %16
  %23 = call noundef zeroext i1 @_ZNK11cmMessenger29GetDeprecatedWarningsAsErrorsEv(ptr noundef nonnull align 8 dereferenceable(64) %6)
  br i1 %23, label %24, label %25

24:                                               ; preds = %22
  store i32 7, ptr %3, align 4
  br label %28

25:                                               ; preds = %22
  store i32 8, ptr %3, align 4
  br label %28

26:                                               ; preds = %19
  %27 = load i32, ptr %5, align 4
  store i32 %27, ptr %3, align 4
  br label %28

28:                                               ; preds = %26, %25, %24, %15, %14
  %29 = load i32, ptr %3, align 4
  ret i32 %29
}