; Function Attrs: mustprogress nofree norecurse nosync nounwind willreturn memory(argmem: read) uwtable
define dso_local noundef i32 @_ZNK11cmMessenger18ConvertMessageTypeE11MessageType(ptr noundef nonnull readonly align 8 captures(none) dereferenceable(64) %0, i32 noundef %1) local_unnamed_addr #3 align 2 {
  %or.cond = icmp ult i32 %1, 2
  br i1 %or.cond, label %3, label %7

3:                                                ; preds = %2
  %4 = getelementptr inbounds nuw i8, ptr %0, i64 42
  %5 = load i8, ptr %4, align 2
  %6 = and i8 %5, 1
  %. = zext nneg i8 %6 to i32
  br label %13

7:                                                ; preds = %2
  %8 = add i32 %1, -7
  %or.cond3 = icmp ult i32 %8, 2
  br i1 %or.cond3, label %9, label %13

9:                                                ; preds = %7
  %10 = getelementptr inbounds nuw i8, ptr %0, i64 43
  %11 = load i8, ptr %10, align 1
  %12 = trunc i8 %11 to i1
  %.10 = select i1 %12, i32 7, i32 8
  br label %13

13:                                               ; preds = %7, %9, %3
  %.0 = phi i32 [ %., %3 ], [ %.10, %9 ], [ %1, %7 ]
  ret i32 %.0
}